target datalayout = "e-m:e-p270:32:32-p271:32:32-p272:64:64-i64:64-i128:128-f80:128-n8:16:32:64-S128"
target triple = "x86_64-pc-linux-gnu"

%"class.(anonymous namespace)::BlockMeanHashImpl" = type { %"class.cv::img_hash::ImgHashBase::ImgHashImpl", %"class.cv::Mat", %"class.std::vector", i32, %"class.cv::Mat" }
%"class.cv::img_hash::ImgHashBase::ImgHashImpl" = type { ptr }
%"class.std::vector" = type { %"struct.std::_Vector_base" }
%"struct.std::_Vector_base" = type { %"struct.std::_Vector_base<double, std::allocator<double>>::_Vector_impl" }
%"struct.std::_Vector_base<double, std::allocator<double>>::_Vector_impl" = type { %"struct.std::_Vector_base<double, std::allocator<double>>::_Vector_impl_data" }
%"struct.std::_Vector_base<double, std::allocator<double>>::_Vector_impl_data" = type { ptr, ptr, ptr }
%"class.cv::Mat" = type { i32, i32, i32, i32, ptr, ptr, ptr, ptr, ptr, ptr, %"struct.cv::MatSize", %"struct.cv::MatStep" }
%"struct.cv::MatSize" = type { ptr }
%"struct.cv::MatStep" = type { ptr, [2 x i64] }

; Function Attrs: mustprogress uwtable
define void @_ZN2cv8img_hash13blockMeanHashERKNS_11_InputArrayERKNS_12_OutputArrayEi(ptr noundef nonnull align 8 dereferenceable(24) %0, ptr noundef nonnull align 8 dereferenceable(24) %1, i32 noundef %2) #4 personality ptr @__gxx_personality_v0 {
  %4 = alloca ptr, align 8
  %5 = alloca ptr, align 8
  %6 = alloca i32, align 4
  %7 = alloca %"class.(anonymous namespace)::BlockMeanHashImpl", align 8
  %8 = alloca ptr, align 8
  %9 = alloca i32, align 4
  store ptr %0, ptr %4, align 8, !tbaa !45
  store ptr %1, ptr %5, align 8, !tbaa !47
  store i32 %2, ptr %6, align 4, !tbaa !3
  call void @llvm.lifetime.start.p0(i64 232, ptr %7) #3
  %10 = load i32, ptr %6, align 4, !tbaa !3
  call void @_ZN12_GLOBAL__N_117BlockMeanHashImplC2Ei(ptr noundef nonnull align 8 dereferenceable(232) %7, i32 noundef %10)
  %11 = load ptr, ptr %4, align 8, !tbaa !45
  %12 = load ptr, ptr %5, align 8, !tbaa !47
  invoke void @_ZN12_GLOBAL__N_117BlockMeanHashImpl7computeERKN2cv11_InputArrayERKNS1_12_OutputArrayE(ptr noundef nonnull align 8 dereferenceable(232) %7, ptr noundef nonnull align 8 dereferenceable(24) %11, ptr noundef nonnull align 8 dereferenceable(24) %12)
          to label %13 unwind label %14

13:                                               ; preds = %3
  call void @_ZN12_GLOBAL__N_117BlockMeanHashImplD2Ev(ptr noundef nonnull align 8 dereferenceable(232) %7) #3
  call void @llvm.lifetime.end.p0(i64 232, ptr %7) #3
  ret void

14:                                               ; preds = %3
  %15 = landingpad { ptr, i32 }
          cleanup
  %16 = extractvalue { ptr, i32 } %15, 0
  store ptr %16, ptr %8, align 8
  %17 = extractvalue { ptr, i32 } %15, 1
  store i32 %17, ptr %9, align 4
  call void @_ZN12_GLOBAL__N_117BlockMeanHashImplD2Ev(ptr noundef nonnull align 8 dereferenceable(232) %7) #3
  call void @llvm.lifetime.end.p0(i64 232, ptr %7) #3
  br label %18

18:                                               ; preds = %14
  %19 = load ptr, ptr %8, align 8
  %20 = load i32, ptr %9, align 4
  %21 = insertvalue { ptr, i32 } poison, ptr %19, 0
  %22 = insertvalue { ptr, i32 } %21, i32 %20, 1
  resume { ptr, i32 } %22
}