; Function Attrs: mustprogress uwtable
define void @_ZN2cv8img_hash13blockMeanHashERKNS_11_InputArrayERKNS_12_OutputArrayEi(ptr noundef nonnull align 8 dereferenceable(24) %0, ptr noundef nonnull align 8 dereferenceable(24) %1, i32 noundef %2) local_unnamed_addr #3 personality ptr @__gxx_personality_v0 {
  %4 = alloca %"class.(anonymous namespace)::BlockMeanHashImpl", align 8
  call void @llvm.lifetime.start.p0(i64 232, ptr nonnull %4) #21
  call fastcc void @_ZN12_GLOBAL__N_117BlockMeanHashImplC2Ei(ptr noundef nonnull align 8 dereferenceable(232) %4, i32 noundef %2)
  invoke void @_ZN12_GLOBAL__N_117BlockMeanHashImpl7computeERKN2cv11_InputArrayERKNS1_12_OutputArrayE(ptr noundef nonnull align 8 dereferenceable(232) %4, ptr noundef nonnull align 8 dereferenceable(24) %0, ptr noundef nonnull align 8 dereferenceable(24) %1)
          to label %5 unwind label %11

5:                                                ; preds = %3
  %6 = getelementptr inbounds nuw i8, ptr %4, i64 136
  call void @_ZN2cv3MatD1Ev(ptr noundef nonnull align 8 dereferenceable(96) %6) #21
  %7 = getelementptr inbounds nuw i8, ptr %4, i64 104
  %8 = load ptr, ptr %7, align 8, !tbaa !53
  %.not.i.i.i.i = icmp eq ptr %8, null
  br i1 %.not.i.i.i.i, label %_ZN12_GLOBAL__N_117BlockMeanHashImplD2Ev.exit, label %9

9:                                                ; preds = %5
  call void @_ZdlPv(ptr noundef nonnull %8) #24
  br label %_ZN12_GLOBAL__N_117BlockMeanHashImplD2Ev.exit

_ZN12_GLOBAL__N_117BlockMeanHashImplD2Ev.exit:    ; preds = %5, %9
  %10 = getelementptr inbounds nuw i8, ptr %4, i64 8
  call void @_ZN2cv3MatD1Ev(ptr noundef nonnull align 8 dereferenceable(96) %10) #21
  call void @llvm.lifetime.end.p0(i64 232, ptr nonnull %4) #21
  ret void

11:                                               ; preds = %3
  %12 = landingpad { ptr, i32 }
          cleanup
  call void @_ZN12_GLOBAL__N_117BlockMeanHashImplD2Ev(ptr noundef nonnull align 8 dereferenceable(232) %4) #21
  call void @llvm.lifetime.end.p0(i64 232, ptr nonnull %4) #21
  resume { ptr, i32 } %12
}